target datalayout = "e-m:e-p270:32:32-p271:32:32-p272:64:64-i64:64-i128:128-f80:128-n8:16:32:64-S128"
target triple = "x86_64-pc-linux-gnu"

%struct.rb_parser_string = type { i32, ptr, i64, ptr }
%struct.rbimpl_size_mul_overflow_tag = type { i8, i64 }

@.str.745 = private unnamed_addr constant [27 x i8] c"literal string changed: %s\00", align 1
@.str.746 = private unnamed_addr constant [38 x i8] c"probable buffer overflow: %ld for %ld\00", align 1

; Function Attrs: nounwind sspstrong uwtable
define internal void @PARSER_ENC_CODERANGE_SET(ptr noundef %0, i32 noundef %1) #0 {
  %3 = alloca ptr, align 8
  %4 = alloca i32, align 4
  store ptr %0, ptr %3, align 8, !tbaa !614
  store i32 %1, ptr %4, align 4, !tbaa !14
  %5 = load i32, ptr %4, align 4, !tbaa !14
  %6 = load ptr, ptr %3, align 8, !tbaa !614
  %7 = getelementptr inbounds nuw %struct.rb_parser_string, ptr %6, i32 0, i32 0
  store i32 %5, ptr %7, align 8, !tbaa !620
  ret void
}

; Function Attrs: nounwind sspstrong uwtable
define internal i32 @PARSER_ENC_CODERANGE(ptr noundef %0) #0 {
  %2 = alloca ptr, align 8
  store ptr %0, ptr %2, align 8, !tbaa !614
  %3 = load ptr, ptr %2, align 8, !tbaa !614
  %4 = getelementptr inbounds nuw %struct.rb_parser_string, ptr %3, i32 0, i32 0
  %5 = load i32, ptr %4, align 8, !tbaa !620
  ret i32 %5
}

; Function Attrs: nounwind sspstrong uwtable
define internal i64 @rb_parser_str_capacity(ptr noundef %0, i32 noundef %1) #0 {
  %3 = alloca ptr, align 8
  %4 = alloca i32, align 4
  store ptr %0, ptr %3, align 8, !tbaa !614
  store i32 %1, ptr %4, align 4, !tbaa !14
  %5 = load ptr, ptr %3, align 8, !tbaa !614
  %6 = getelementptr inbounds nuw %struct.rb_parser_string, ptr %5, i32 0, i32 2
  %7 = load i64, ptr %6, align 8, !tbaa !668
  ret i64 %7
}

; Function Attrs: inlinehint nounwind sspstrong willreturn memory(none) uwtable
define internal { i8, i64 } @rbimpl_size_mul_overflow(i64 noundef %0, i64 noundef %1) #12 {
  %3 = alloca %struct.rbimpl_size_mul_overflow_tag, align 8
  %4 = alloca i64, align 8
  %5 = alloca i64, align 8
  store i64 %0, ptr %4, align 8, !tbaa !16
  store i64 %1, ptr %5, align 8, !tbaa !16
  call void @llvm.memset.p0.i64(ptr align 8 %3, i8 0, i64 16, i1 false)
  %6 = load i64, ptr %4, align 8, !tbaa !16
  %7 = load i64, ptr %5, align 8, !tbaa !16
  %8 = getelementptr inbounds nuw %struct.rbimpl_size_mul_overflow_tag, ptr %3, i32 0, i32 1
  %9 = call { i64, i1 } @llvm.umul.with.overflow.i64(i64 %6, i64 %7)
  %10 = extractvalue { i64, i1 } %9, 1
  %11 = extractvalue { i64, i1 } %9, 0
  store i64 %11, ptr %8, align 8
  %12 = getelementptr inbounds nuw %struct.rbimpl_size_mul_overflow_tag, ptr %3, i32 0, i32 0
  %13 = zext i1 %10 to i8
  store i8 %13, ptr %12, align 8, !tbaa !769
  %14 = load { i8, i64 }, ptr %3, align 8
  ret { i8, i64 } %14
}

; Function Attrs: nounwind sspstrong uwtable
define internal void @PARSER_ENC_CODERANGE_CLEAR(ptr noundef %0) #0 {
  %2 = alloca ptr, align 8
  store ptr %0, ptr %2, align 8, !tbaa !614
  %3 = load ptr, ptr %2, align 8, !tbaa !614
  %4 = getelementptr inbounds nuw %struct.rb_parser_string, ptr %3, i32 0, i32 0
  store i32 0, ptr %4, align 8, !tbaa !620
  ret void
}

; Function Attrs: nounwind sspstrong uwtable
define internal void @rb_parser_str_set_len(ptr noundef %0, ptr noundef %1, i64 noundef %2) #0 {
  %4 = alloca ptr, align 8
  %5 = alloca ptr, align 8
  %6 = alloca i64, align 8
  %7 = alloca i64, align 8
  %8 = alloca i32, align 4
  %9 = alloca i32, align 4
  store ptr %0, ptr %4, align 8, !tbaa !6
  store ptr %1, ptr %5, align 8, !tbaa !614
  store i64 %2, ptr %6, align 8, !tbaa !16
  call void @llvm.lifetime.start.p0(i64 8, ptr %7) #25
  call void @llvm.lifetime.start.p0(i64 4, ptr %8) #25
  store i32 1, ptr %8, align 4, !tbaa !14
  %10 = load i64, ptr %6, align 8, !tbaa !16
  %11 = load ptr, ptr %5, align 8, !tbaa !614
  %12 = call i64 @rb_parser_str_capacity(ptr noundef %11, i32 noundef 1)
  store i64 %12, ptr %7, align 8, !tbaa !16
  %13 = icmp sgt i64 %10, %12
  br i1 %13, label %17, label %14

14:                                               ; preds = %3
  %15 = load i64, ptr %6, align 8, !tbaa !16
  %16 = icmp slt i64 %15, 0
  br i1 %16, label %17, label %20

17:                                               ; preds = %14, %3
  %18 = load i64, ptr %6, align 8, !tbaa !16
  %19 = load i64, ptr %7, align 8, !tbaa !16
  call void (ptr, ...) @rb_bug(ptr noundef @.str.746, i64 noundef %18, i64 noundef %19) #30
  unreachable

20:                                               ; preds = %14
  call void @llvm.lifetime.start.p0(i64 4, ptr %9) #25
  %21 = load ptr, ptr %5, align 8, !tbaa !614
  %22 = call i32 @PARSER_ENC_CODERANGE(ptr noundef %21)
  store i32 %22, ptr %9, align 4, !tbaa !14
  %23 = load i32, ptr %9, align 4, !tbaa !14
  %24 = icmp eq i32 %23, 0
  br i1 %24, label %25, label %26

25:                                               ; preds = %20
  br label %48

26:                                               ; preds = %20
  %27 = load i64, ptr %6, align 8, !tbaa !16
  %28 = load ptr, ptr %5, align 8, !tbaa !614
  %29 = getelementptr inbounds nuw %struct.rb_parser_string, ptr %28, i32 0, i32 2
  %30 = load i64, ptr %29, align 8, !tbaa !668
  %31 = icmp sgt i64 %27, %30
  br i1 %31, label %32, label %34

32:                                               ; preds = %26
  %33 = load ptr, ptr %5, align 8, !tbaa !614
  call void @PARSER_ENC_CODERANGE_SET(ptr noundef %33, i32 noundef 0)
  br label %47

34:                                               ; preds = %26
  %35 = load i64, ptr %6, align 8, !tbaa !16
  %36 = load ptr, ptr %5, align 8, !tbaa !614
  %37 = getelementptr inbounds nuw %struct.rb_parser_string, ptr %36, i32 0, i32 2
  %38 = load i64, ptr %37, align 8, !tbaa !668
  %39 = icmp slt i64 %35, %38
  br i1 %39, label %40, label %46

40:                                               ; preds = %34
  %41 = load i32, ptr %9, align 4, !tbaa !14
  %42 = icmp ne i32 %41, 1
  br i1 %42, label %43, label %45

43:                                               ; preds = %40
  %44 = load ptr, ptr %5, align 8, !tbaa !614
  call void @PARSER_ENC_CODERANGE_SET(ptr noundef %44, i32 noundef 0)
  br label %45

45:                                               ; preds = %43, %40
  br label %46

46:                                               ; preds = %45, %34
  br label %47

47:                                               ; preds = %46, %32
  br label %48

48:                                               ; preds = %47, %25
  br label %49

49:                                               ; preds = %48
  %50 = load i64, ptr %6, align 8, !tbaa !16
  %51 = load ptr, ptr %5, align 8, !tbaa !614
  %52 = getelementptr inbounds nuw %struct.rb_parser_string, ptr %51, i32 0, i32 2
  store i64 %50, ptr %52, align 8, !tbaa !668
  br label %53

53:                                               ; preds = %49
  br label %54

54:                                               ; preds = %53
  %55 = load ptr, ptr %5, align 8, !tbaa !614
  %56 = getelementptr inbounds nuw %struct.rb_parser_string, ptr %55, i32 0, i32 3
  %57 = load ptr, ptr %56, align 8, !tbaa !669
  %58 = load ptr, ptr %5, align 8, !tbaa !614
  %59 = getelementptr inbounds nuw %struct.rb_parser_string, ptr %58, i32 0, i32 2
  %60 = load i64, ptr %59, align 8, !tbaa !668
  %61 = getelementptr inbounds i8, ptr %57, i64 %60
  store i8 0, ptr %61, align 1, !tbaa !12
  call void @llvm.lifetime.end.p0(i64 4, ptr %9) #25
  call void @llvm.lifetime.end.p0(i64 4, ptr %8) #25
  call void @llvm.lifetime.end.p0(i64 8, ptr %7) #25
  ret void
}

; Function Attrs: alwaysinline nounwind
define internal ptr @memmove.inline(ptr nonnull %0, ptr nonnull %1, i64 %2) #14 {
  %4 = alloca ptr, align 8
  %5 = alloca ptr, align 8
  %6 = alloca i64, align 8
  store ptr %0, ptr %4, align 8, !tbaa !609
  store ptr %1, ptr %5, align 8, !tbaa !609
  store i64 %2, ptr %6, align 8, !tbaa !16
  %7 = load ptr, ptr %4, align 8, !tbaa !609
  %8 = load ptr, ptr %5, align 8, !tbaa !609
  %9 = load i64, ptr %6, align 8, !tbaa !16
  %10 = load ptr, ptr %4, align 8, !tbaa !609
  %11 = call i64 @llvm.objectsize.i64.p0(ptr %10, i1 false, i1 true, i1 false)
  %12 = call ptr @__memmove_chk(ptr noundef %7, ptr noundef %8, i64 noundef %9, i64 noundef %11) #25
  ret ptr %12
}

; Function Attrs: inlinehint nounwind sspstrong uwtable
define internal i64 @rbimpl_size_mul_or_raise(i64 noundef %0, i64 noundef %1) #6 {
  %3 = alloca i64, align 8
  %4 = alloca i64, align 8
  %5 = alloca %struct.rbimpl_size_mul_overflow_tag, align 8
  store i64 %0, ptr %3, align 8, !tbaa !16
  store i64 %1, ptr %4, align 8, !tbaa !16
  call void @llvm.lifetime.start.p0(i64 16, ptr %5) #25
  %6 = load i64, ptr %3, align 8, !tbaa !16
  %7 = load i64, ptr %4, align 8, !tbaa !16
  %8 = call { i8, i64 } @rbimpl_size_mul_overflow(i64 noundef %6, i64 noundef %7) #28
  %9 = getelementptr inbounds nuw { i8, i64 }, ptr %5, i32 0, i32 0
  %10 = extractvalue { i8, i64 } %8, 0
  store i8 %10, ptr %9, align 8
  %11 = getelementptr inbounds nuw { i8, i64 }, ptr %5, i32 0, i32 1
  %12 = extractvalue { i8, i64 } %8, 1
  store i64 %12, ptr %11, align 8
  %13 = getelementptr inbounds nuw %struct.rbimpl_size_mul_overflow_tag, ptr %5, i32 0, i32 0
  %14 = load i8, ptr %13, align 8, !tbaa !769, !range !219, !noundef !220
  %15 = trunc i8 %14 to i1
  %16 = xor i1 %15, true
  %17 = xor i1 %16, true
  %18 = xor i1 %17, true
  %19 = zext i1 %18 to i32
  %20 = sext i32 %19 to i64
  %21 = call i64 @llvm.expect.i64(i64 %20, i64 1)
  %22 = icmp ne i64 %21, 0
  br i1 %22, label %23, label %26

23:                                               ; preds = %2
  %24 = getelementptr inbounds nuw %struct.rbimpl_size_mul_overflow_tag, ptr %5, i32 0, i32 1
  %25 = load i64, ptr %24, align 8, !tbaa !771
  call void @llvm.lifetime.end.p0(i64 16, ptr %5) #25
  ret i64 %25

26:                                               ; preds = %2
  %27 = load i64, ptr %3, align 8, !tbaa !16
  %28 = load i64, ptr %4, align 8, !tbaa !16
  call void @ruby_malloc_size_overflow(i64 noundef %27, i64 noundef %28) #33
  unreachable
}

; Function Attrs: nounwind sspstrong uwtable
define internal void @rb_parser_str_modify(ptr noundef %0) #0 {
  %2 = alloca ptr, align 8
  store ptr %0, ptr %2, align 8, !tbaa !614
  %3 = load ptr, ptr %2, align 8, !tbaa !614
  call void @PARSER_ENC_CODERANGE_CLEAR(ptr noundef %3)
  ret void
}

; Function Attrs: nounwind sspstrong uwtable
define internal i32 @dedent_string_column(ptr noundef %0, i64 noundef %1, i32 noundef %2) #0 {
  %4 = alloca ptr, align 8
  %5 = alloca i64, align 8
  %6 = alloca i32, align 4
  %7 = alloca i32, align 4
  %8 = alloca i32, align 4
  %9 = alloca i32, align 4
  %10 = alloca i32, align 4
  store ptr %0, ptr %4, align 8, !tbaa !24
  store i64 %1, ptr %5, align 8, !tbaa !16
  store i32 %2, ptr %6, align 4, !tbaa !14
  call void @llvm.lifetime.start.p0(i64 4, ptr %7) #25
  call void @llvm.lifetime.start.p0(i64 4, ptr %8) #25
  store i32 0, ptr %8, align 4, !tbaa !14
  store i32 0, ptr %7, align 4, !tbaa !14
  br label %11

11:                                               ; preds = %58, %3
  %12 = load i32, ptr %7, align 4, !tbaa !14
  %13 = sext i32 %12 to i64
  %14 = load i64, ptr %5, align 8, !tbaa !16
  %15 = icmp slt i64 %13, %14
  br i1 %15, label %16, label %20

16:                                               ; preds = %11
  %17 = load i32, ptr %8, align 4, !tbaa !14
  %18 = load i32, ptr %6, align 4, !tbaa !14
  %19 = icmp slt i32 %17, %18
  br label %20

20:                                               ; preds = %16, %11
  %21 = phi i1 [ false, %11 ], [ %19, %16 ]
  br i1 %21, label %22, label %61

22:                                               ; preds = %20
  %23 = load ptr, ptr %4, align 8, !tbaa !24
  %24 = load i32, ptr %7, align 4, !tbaa !14
  %25 = sext i32 %24 to i64
  %26 = getelementptr inbounds i8, ptr %23, i64 %25
  %27 = load i8, ptr %26, align 1, !tbaa !12
  %28 = sext i8 %27 to i32
  %29 = icmp eq i32 %28, 32
  br i1 %29, label %30, label %33

30:                                               ; preds = %22
  %31 = load i32, ptr %8, align 4, !tbaa !14
  %32 = add nsw i32 %31, 1
  store i32 %32, ptr %8, align 4, !tbaa !14
  br label %57

33:                                               ; preds = %22
  %34 = load ptr, ptr %4, align 8, !tbaa !24
  %35 = load i32, ptr %7, align 4, !tbaa !14
  %36 = sext i32 %35 to i64
  %37 = getelementptr inbounds i8, ptr %34, i64 %36
  %38 = load i8, ptr %37, align 1, !tbaa !12
  %39 = sext i8 %38 to i32
  %40 = icmp eq i32 %39, 9
  br i1 %40, label %41, label %55

41:                                               ; preds = %33
  call void @llvm.lifetime.start.p0(i64 4, ptr %9) #25
  %42 = load i32, ptr %8, align 4, !tbaa !14
  %43 = sdiv i32 %42, 8
  %44 = add nsw i32 %43, 1
  %45 = mul nsw i32 8, %44
  store i32 %45, ptr %9, align 4, !tbaa !14
  %46 = load i32, ptr %9, align 4, !tbaa !14
  %47 = load i32, ptr %6, align 4, !tbaa !14
  %48 = icmp sgt i32 %46, %47
  br i1 %48, label %49, label %50

49:                                               ; preds = %41
  store i32 2, ptr %10, align 4
  br label %52

50:                                               ; preds = %41
  %51 = load i32, ptr %9, align 4, !tbaa !14
  store i32 %51, ptr %8, align 4, !tbaa !14
  store i32 0, ptr %10, align 4
  br label %52

52:                                               ; preds = %50, %49
  call void @llvm.lifetime.end.p0(i64 4, ptr %9) #25
  %53 = load i32, ptr %10, align 4
  switch i32 %53, label %63 [
    i32 0, label %54
    i32 2, label %61
  ]

54:                                               ; preds = %52
  br label %56

55:                                               ; preds = %33
  br label %61

56:                                               ; preds = %54
  br label %57

57:                                               ; preds = %56, %30
  br label %58

58:                                               ; preds = %57
  %59 = load i32, ptr %7, align 4, !tbaa !14
  %60 = add nsw i32 %59, 1
  store i32 %60, ptr %7, align 4, !tbaa !14
  br label %11, !llvm.loop !980

61:                                               ; preds = %55, %52, %20
  %62 = load i32, ptr %7, align 4, !tbaa !14
  store i32 1, ptr %10, align 4
  call void @llvm.lifetime.end.p0(i64 4, ptr %8) #25
  call void @llvm.lifetime.end.p0(i64 4, ptr %7) #25
  ret i32 %62

63:                                               ; preds = %52
  unreachable
}

; Function Attrs: nounwind sspstrong uwtable
define internal i32 @dedent_string(ptr noundef %0, ptr noundef %1, i32 noundef %2) #0 {
  %4 = alloca i32, align 4
  %5 = alloca ptr, align 8
  %6 = alloca ptr, align 8
  %7 = alloca i32, align 4
  %8 = alloca ptr, align 8
  %9 = alloca i64, align 8
  %10 = alloca i32, align 4
  %11 = alloca i32, align 4
  store ptr %0, ptr %5, align 8, !tbaa !6
  store ptr %1, ptr %6, align 8, !tbaa !614
  store i32 %2, ptr %7, align 4, !tbaa !14
  call void @llvm.lifetime.start.p0(i64 8, ptr %8) #25
  call void @llvm.lifetime.start.p0(i64 8, ptr %9) #25
  call void @llvm.lifetime.start.p0(i64 4, ptr %10) #25
  %12 = load ptr, ptr %6, align 8, !tbaa !614
  %13 = getelementptr inbounds nuw %struct.rb_parser_string, ptr %12, i32 0, i32 2
  %14 = load i64, ptr %13, align 8, !tbaa !668
  store i64 %14, ptr %9, align 8, !tbaa !16
  %15 = load ptr, ptr %6, align 8, !tbaa !614
  %16 = getelementptr inbounds nuw %struct.rb_parser_string, ptr %15, i32 0, i32 3
  %17 = load ptr, ptr %16, align 8, !tbaa !669
  store ptr %17, ptr %8, align 8, !tbaa !24
  %18 = load ptr, ptr %8, align 8, !tbaa !24
  %19 = load i64, ptr %9, align 8, !tbaa !16
  %20 = load i32, ptr %7, align 4, !tbaa !14
  %21 = call i32 @dedent_string_column(ptr noundef %18, i64 noundef %19, i32 noundef %20)
  store i32 %21, ptr %10, align 4, !tbaa !14
  %22 = load i32, ptr %10, align 4, !tbaa !14
  %23 = icmp ne i32 %22, 0
  br i1 %23, label %25, label %24

24:                                               ; preds = %3
  store i32 0, ptr %4, align 4
  store i32 1, ptr %11, align 4
  br label %58

25:                                               ; preds = %3
  %26 = load ptr, ptr %6, align 8, !tbaa !614
  call void @rb_parser_str_modify(ptr noundef %26)
  %27 = load ptr, ptr %6, align 8, !tbaa !614
  %28 = getelementptr inbounds nuw %struct.rb_parser_string, ptr %27, i32 0, i32 3
  %29 = load ptr, ptr %28, align 8, !tbaa !669
  store ptr %29, ptr %8, align 8, !tbaa !24
  %30 = load ptr, ptr %6, align 8, !tbaa !614
  %31 = getelementptr inbounds nuw %struct.rb_parser_string, ptr %30, i32 0, i32 2
  %32 = load i64, ptr %31, align 8, !tbaa !668
  %33 = load i64, ptr %9, align 8, !tbaa !16
  %34 = icmp ne i64 %32, %33
  br i1 %34, label %35, label %39

35:                                               ; preds = %25
  %36 = load ptr, ptr %6, align 8, !tbaa !614
  %37 = getelementptr inbounds nuw %struct.rb_parser_string, ptr %36, i32 0, i32 3
  %38 = load ptr, ptr %37, align 8, !tbaa !669
  call void (ptr, ...) @rb_fatal(ptr noundef @.str.745, ptr noundef %38) #33
  unreachable

39:                                               ; preds = %25
  %40 = load ptr, ptr %8, align 8, !tbaa !24
  %41 = load ptr, ptr %8, align 8, !tbaa !24
  %42 = load i32, ptr %10, align 4, !tbaa !14
  %43 = sext i32 %42 to i64
  %44 = getelementptr inbounds i8, ptr %41, i64 %43
  %45 = load i64, ptr %9, align 8, !tbaa !16
  %46 = load i32, ptr %10, align 4, !tbaa !14
  %47 = sext i32 %46 to i64
  %48 = sub nsw i64 %45, %47
  %49 = call i64 @rbimpl_size_mul_or_raise(i64 noundef 1, i64 noundef %48)
  %50 = call ptr @memmove.inline(ptr noundef %40, ptr noundef %44, i64 noundef %49) #25
  %51 = load ptr, ptr %5, align 8, !tbaa !6
  %52 = load ptr, ptr %6, align 8, !tbaa !614
  %53 = load i64, ptr %9, align 8, !tbaa !16
  %54 = load i32, ptr %10, align 4, !tbaa !14
  %55 = sext i32 %54 to i64
  %56 = sub nsw i64 %53, %55
  call void @rb_parser_str_set_len(ptr noundef %51, ptr noundef %52, i64 noundef %56)
  %57 = load i32, ptr %10, align 4, !tbaa !14
  store i32 %57, ptr %4, align 4
  store i32 1, ptr %11, align 4
  br label %58

58:                                               ; preds = %39, %24
  call void @llvm.lifetime.end.p0(i64 4, ptr %10) #25
  call void @llvm.lifetime.end.p0(i64 8, ptr %9) #25
  call void @llvm.lifetime.end.p0(i64 8, ptr %8) #25
  %59 = load i32, ptr %4, align 4
  ret i32 %59
}