; Function Attrs: nounwind sspstrong uwtable
define internal fastcc i32 @dedent_string(ptr noundef captures(none) %0, i32 noundef %1) unnamed_addr #0 {
  %3 = getelementptr inbounds nuw i8, ptr %0, i64 16
  %4 = load i64, ptr %3, align 8, !tbaa !445
  %5 = getelementptr inbounds nuw i8, ptr %0, i64 24
  %6 = load ptr, ptr %5, align 8, !tbaa !443
  %7 = icmp sgt i64 %4, 0
  %8 = icmp sgt i32 %1, 0
  %9 = and i1 %8, %7
  br i1 %9, label %.lr.ph.i, label %dedent_string_column.exit.thread

.lr.ph.i:                                         ; preds = %2, %19
  %indvars.iv.i = phi i64 [ %indvars.iv.next.i, %19 ], [ 0, %2 ]
  %.01621.i = phi i32 [ %.2.i, %19 ], [ 0, %2 ]
  %10 = getelementptr inbounds nuw i8, ptr %6, i64 %indvars.iv.i
  %11 = load i8, ptr %10, align 1, !tbaa !6
  switch i8 %11, label %dedent_string_column.exit [
    i8 32, label %12
    i8 9, label %14
  ]

12:                                               ; preds = %.lr.ph.i
  %13 = add nsw i32 %.01621.i, 1
  br label %19

14:                                               ; preds = %.lr.ph.i
  %15 = sdiv i32 %.01621.i, 8
  %16 = shl nsw i32 %15, 3
  %17 = add i32 %16, 8
  %18 = icmp sgt i32 %17, %1
  br i1 %18, label %dedent_string_column.exit, label %19

19:                                               ; preds = %14, %12
  %.2.i = phi i32 [ %13, %12 ], [ %17, %14 ]
  %indvars.iv.next.i = add nuw nsw i64 %indvars.iv.i, 1
  %20 = icmp sgt i64 %4, %indvars.iv.next.i
  %21 = icmp slt i32 %.2.i, %1
  %22 = select i1 %20, i1 %21, i1 false
  br i1 %22, label %.lr.ph.i, label %dedent_string_column.exit, !llvm.loop !480

dedent_string_column.exit:                        ; preds = %.lr.ph.i, %14, %19
  %.015.lcssa.ph.in.i = phi i64 [ %indvars.iv.next.i, %19 ], [ %indvars.iv.i, %.lr.ph.i ], [ %indvars.iv.i, %14 ]
  %.015.lcssa.ph.i = trunc i64 %.015.lcssa.ph.in.i to i32
  %.not = icmp eq i32 %.015.lcssa.ph.i, 0
  br i1 %.not, label %dedent_string_column.exit.thread, label %rbimpl_size_mul_or_raise.exit

rbimpl_size_mul_or_raise.exit:                    ; preds = %dedent_string_column.exit
  store i32 0, ptr %0, align 8, !tbaa !446
  %sext = shl i64 %.015.lcssa.ph.in.i, 32
  %23 = ashr exact i64 %sext, 32
  %24 = sub nsw i64 %4, %23
  %25 = getelementptr inbounds i8, ptr %6, i64 %23
  tail call void @llvm.memmove.p0.p0.i64(ptr noundef nonnull align 1 %6, ptr noundef nonnull align 1 %25, i64 noundef %24, i1 noundef false) #31
  %.val22.i = load i64, ptr %3, align 8, !tbaa !445
  %26 = icmp sgt i64 %24, %.val22.i
  %27 = icmp slt i64 %24, 0
  %or.cond.i = or i1 %27, %26
  br i1 %or.cond.i, label %28, label %29

28:                                               ; preds = %rbimpl_size_mul_or_raise.exit
  tail call void (ptr, ...) @rb_bug(ptr noundef nonnull @.str.746, i64 noundef %24, i64 noundef %.val22.i) #36
  unreachable

29:                                               ; preds = %rbimpl_size_mul_or_raise.exit
  %.val.i = load i32, ptr %0, align 8, !tbaa !446
  %30 = icmp eq i32 %.val.i, 0
  br i1 %30, label %rb_parser_str_set_len.exit, label %31

31:                                               ; preds = %29
  %32 = icmp slt i64 %24, %.val22.i
  %33 = icmp ne i32 %.val.i, 1
  %or.cond3.i = and i1 %32, %33
  br i1 %or.cond3.i, label %34, label %rb_parser_str_set_len.exit

34:                                               ; preds = %31
  store i32 0, ptr %0, align 8, !tbaa !446
  br label %rb_parser_str_set_len.exit

rb_parser_str_set_len.exit:                       ; preds = %29, %31, %34
  store i64 %24, ptr %3, align 8, !tbaa !445
  %35 = load ptr, ptr %5, align 8, !tbaa !443
  %36 = getelementptr inbounds nuw i8, ptr %35, i64 %24
  store i8 0, ptr %36, align 1, !tbaa !6
  br label %dedent_string_column.exit.thread

dedent_string_column.exit.thread:                 ; preds = %2, %dedent_string_column.exit, %rb_parser_str_set_len.exit
  %.0 = phi i32 [ %.015.lcssa.ph.i, %rb_parser_str_set_len.exit ], [ 0, %dedent_string_column.exit ], [ 0, %2 ]
  ret i32 %.0
}